target datalayout = "e-m:e-p270:32:32-p271:32:32-p272:64:64-i64:64-i128:128-f80:128-n8:16:32:64-S128"
target triple = "x86_64-pc-linux-gnu"

%struct._zval_struct = type { %union._zend_value, %union.anon, %union.anon.3 }
%union._zend_value = type { i64 }
%union.anon = type { i32 }
%union.anon.3 = type { i32 }
%struct._zend_op_array = type { i8, [3 x i8], i32, ptr, ptr, ptr, i32, i32, ptr, ptr, ptr, ptr, i32, ptr, i32, i32, i32, ptr, ptr, ptr, ptr, ptr, i32, i32, ptr, ptr, ptr, i32, i32, i32, i32, ptr, ptr, [6 x ptr] }

; Function Attrs: nounwind uwtable
define hidden i32 @zend_optimizer_add_literal(ptr noundef %0, ptr noundef %1) #0 {
  %3 = alloca ptr, align 8
  %4 = alloca ptr, align 8
  %5 = alloca i32, align 4
  %6 = alloca ptr, align 8
  %7 = alloca ptr, align 8
  %8 = alloca ptr, align 8
  %9 = alloca i32, align 4
  store ptr %0, ptr %3, align 8, !tbaa !98
  store ptr %1, ptr %4, align 8, !tbaa !9
  call void @llvm.lifetime.start.p0(i64 4, ptr %5) #13
  %10 = load ptr, ptr %3, align 8, !tbaa !98
  %11 = getelementptr inbounds nuw %struct._zend_op_array, ptr %10, i32 0, i32 29
  %12 = load i32, ptr %11, align 8, !tbaa !114
  store i32 %12, ptr %5, align 4, !tbaa !29
  %13 = load ptr, ptr %3, align 8, !tbaa !98
  %14 = getelementptr inbounds nuw %struct._zend_op_array, ptr %13, i32 0, i32 29
  %15 = load i32, ptr %14, align 8, !tbaa !114
  %16 = add nsw i32 %15, 1
  store i32 %16, ptr %14, align 8, !tbaa !114
  %17 = load ptr, ptr %3, align 8, !tbaa !98
  %18 = getelementptr inbounds nuw %struct._zend_op_array, ptr %17, i32 0, i32 31
  %19 = load ptr, ptr %18, align 8, !tbaa !106
  %20 = load ptr, ptr %3, align 8, !tbaa !98
  %21 = getelementptr inbounds nuw %struct._zend_op_array, ptr %20, i32 0, i32 29
  %22 = load i32, ptr %21, align 8, !tbaa !114
  %23 = sext i32 %22 to i64
  %24 = mul i64 %23, 16
  %25 = call ptr @_erealloc(ptr noundef %19, i64 noundef %24) #16
  %26 = load ptr, ptr %3, align 8, !tbaa !98
  %27 = getelementptr inbounds nuw %struct._zend_op_array, ptr %26, i32 0, i32 31
  store ptr %25, ptr %27, align 8, !tbaa !106
  br label %28

28:                                               ; preds = %2
  call void @llvm.lifetime.start.p0(i64 8, ptr %6) #13
  %29 = load ptr, ptr %3, align 8, !tbaa !98
  %30 = getelementptr inbounds nuw %struct._zend_op_array, ptr %29, i32 0, i32 31
  %31 = load ptr, ptr %30, align 8, !tbaa !106
  %32 = load i32, ptr %5, align 4, !tbaa !29
  %33 = sext i32 %32 to i64
  %34 = getelementptr inbounds %struct._zval_struct, ptr %31, i64 %33
  store ptr %34, ptr %6, align 8, !tbaa !9
  call void @llvm.lifetime.start.p0(i64 8, ptr %7) #13
  %35 = load ptr, ptr %4, align 8, !tbaa !9
  store ptr %35, ptr %7, align 8, !tbaa !9
  call void @llvm.lifetime.start.p0(i64 8, ptr %8) #13
  %36 = load ptr, ptr %7, align 8, !tbaa !9
  %37 = getelementptr inbounds nuw %struct._zval_struct, ptr %36, i32 0, i32 0
  %38 = load ptr, ptr %37, align 8, !tbaa !17
  store ptr %38, ptr %8, align 8, !tbaa !33
  call void @llvm.lifetime.start.p0(i64 4, ptr %9) #13
  %39 = load ptr, ptr %7, align 8, !tbaa !9
  %40 = getelementptr inbounds nuw %struct._zval_struct, ptr %39, i32 0, i32 1
  %41 = load i32, ptr %40, align 8, !tbaa !17
  store i32 %41, ptr %9, align 4, !tbaa !29
  br label %42

42:                                               ; preds = %28
  %43 = load ptr, ptr %8, align 8, !tbaa !33
  %44 = load ptr, ptr %6, align 8, !tbaa !9
  %45 = getelementptr inbounds nuw %struct._zval_struct, ptr %44, i32 0, i32 0
  store ptr %43, ptr %45, align 8, !tbaa !17
  %46 = load i32, ptr %9, align 4, !tbaa !29
  %47 = load ptr, ptr %6, align 8, !tbaa !9
  %48 = getelementptr inbounds nuw %struct._zval_struct, ptr %47, i32 0, i32 1
  store i32 %46, ptr %48, align 8, !tbaa !17
  br label %49

49:                                               ; preds = %42
  br label %50

50:                                               ; preds = %49
  call void @llvm.lifetime.end.p0(i64 4, ptr %9) #13
  call void @llvm.lifetime.end.p0(i64 8, ptr %8) #13
  call void @llvm.lifetime.end.p0(i64 8, ptr %7) #13
  call void @llvm.lifetime.end.p0(i64 8, ptr %6) #13
  br label %51

51:                                               ; preds = %50
  br label %52

52:                                               ; preds = %51
  %53 = load ptr, ptr %3, align 8, !tbaa !98
  %54 = getelementptr inbounds nuw %struct._zend_op_array, ptr %53, i32 0, i32 31
  %55 = load ptr, ptr %54, align 8, !tbaa !106
  %56 = load i32, ptr %5, align 4, !tbaa !29
  %57 = sext i32 %56 to i64
  %58 = getelementptr inbounds %struct._zval_struct, ptr %55, i64 %57
  %59 = getelementptr inbounds nuw %struct._zval_struct, ptr %58, i32 0, i32 2
  store i32 0, ptr %59, align 4, !tbaa !17
  %60 = load i32, ptr %5, align 4, !tbaa !29
  call void @llvm.lifetime.end.p0(i64 4, ptr %5) #13
  ret i32 %60
}