; Function Attrs: nounwind uwtable
define hidden i32 @zend_optimizer_add_literal(ptr noundef captures(none) %0, ptr noundef readonly captures(none) %1) local_unnamed_addr #0 {
  %3 = getelementptr inbounds nuw i8, ptr %0, i64 184
  %4 = load i32, ptr %3, align 8, !tbaa !95
  %5 = add nsw i32 %4, 1
  store i32 %5, ptr %3, align 8, !tbaa !95
  %6 = getelementptr inbounds nuw i8, ptr %0, i64 192
  %7 = load ptr, ptr %6, align 8, !tbaa !87
  %8 = sext i32 %5 to i64
  %9 = shl nsw i64 %8, 4
  %10 = tail call ptr @_erealloc(ptr noundef %7, i64 noundef %9) #21
  store ptr %10, ptr %6, align 8, !tbaa !87
  %11 = sext i32 %4 to i64
  %12 = getelementptr inbounds %struct._zval_struct, ptr %10, i64 %11
  %13 = load ptr, ptr %1, align 8, !tbaa !20
  %14 = getelementptr inbounds nuw i8, ptr %1, i64 8
  %15 = load i32, ptr %14, align 8, !tbaa !20
  store ptr %13, ptr %12, align 8, !tbaa !20
  %16 = getelementptr inbounds nuw i8, ptr %12, i64 8
  store i32 %15, ptr %16, align 8, !tbaa !20
  %17 = load ptr, ptr %6, align 8, !tbaa !87
  %18 = getelementptr inbounds %struct._zval_struct, ptr %17, i64 %11, i32 2
  store i32 0, ptr %18, align 4, !tbaa !20
  ret i32 %4
}